target datalayout = "e-m:e-p270:32:32-p271:32:32-p272:64:64-i64:64-i128:128-f80:128-n8:16:32:64-S128"
target triple = "x86_64-pc-linux-gnu"

@orig_pmeth = internal global ptr null, align 8

; Function Attrs: nounwind uwtable
define internal i32 @custom_pmeth_sign(ptr noundef %0, ptr noundef %1, ptr noundef %2, ptr noundef %3, i64 noundef %4) #0 {
  %6 = alloca ptr, align 8
  %7 = alloca ptr, align 8
  %8 = alloca ptr, align 8
  %9 = alloca ptr, align 8
  %10 = alloca i64, align 8
  %11 = alloca ptr, align 8
  store ptr %0, ptr %6, align 8, !tbaa !29
  store ptr %1, ptr %7, align 8, !tbaa !4
  store ptr %2, ptr %8, align 8, !tbaa !160
  store ptr %3, ptr %9, align 8, !tbaa !4
  store i64 %4, ptr %10, align 8, !tbaa !23
  call void @llvm.lifetime.start.p0(i64 8, ptr %11) #8
  %12 = load ptr, ptr @orig_pmeth, align 8, !tbaa !17
  call void @EVP_PKEY_meth_get_sign(ptr noundef %12, ptr noundef null, ptr noundef %11)
  %13 = load ptr, ptr %11, align 8, !tbaa !54
  %14 = load ptr, ptr %6, align 8, !tbaa !29
  %15 = load ptr, ptr %7, align 8, !tbaa !4
  %16 = load ptr, ptr %8, align 8, !tbaa !160
  %17 = load ptr, ptr %9, align 8, !tbaa !4
  %18 = load i64, ptr %10, align 8, !tbaa !23
  %19 = call i32 %13(ptr noundef %14, ptr noundef %15, ptr noundef %16, ptr noundef %17, i64 noundef %18)
  call void @llvm.lifetime.end.p0(i64 8, ptr %11) #8
  ret i32 %19
}