; Function Attrs: nounwind uwtable
define internal i32 @custom_pmeth_sign(ptr noundef %0, ptr noundef %1, ptr noundef %2, ptr noundef %3, i64 noundef %4) #1 {
  %6 = alloca ptr, align 8
  call void @llvm.lifetime.start.p0(i64 8, ptr nonnull %6) #9
  %7 = load ptr, ptr @orig_pmeth, align 8, !tbaa !13
  call void @EVP_PKEY_meth_get_sign(ptr noundef %7, ptr noundef null, ptr noundef nonnull %6) #9
  %8 = load ptr, ptr %6, align 8, !tbaa !34
  %9 = call i32 %8(ptr noundef %0, ptr noundef %1, ptr noundef %2, ptr noundef %3, i64 noundef %4) #9
  call void @llvm.lifetime.end.p0(i64 8, ptr nonnull %6) #9
  ret i32 %9
}